target datalayout = "e-m:e-p270:32:32-p271:32:32-p272:64:64-i64:64-i128:128-f80:128-n8:16:32:64-S128"
target triple = "x86_64-pc-linux-gnu"

%union.ufmt_args = type { i64 }
%struct.u_scanf_spec_info = type { i32, i16, i16, i8, i8, i8, i8, i8, i8 }
%struct.UFILE = type { ptr, ptr, ptr, %struct.u_localized_string, [1024 x i16], i8, i32 }
%struct.u_localized_string = type { ptr, ptr, ptr, %struct.ULocaleBundle }
%struct.ULocaleBundle = type { ptr, [5 x ptr], i8 }

; Function Attrs: mustprogress uwtable
define internal noundef i32 @_ZL23u_scanf_skip_leading_wsP5UFILEDs(ptr noundef %0, i16 noundef zeroext %1) #0 {
  %3 = alloca ptr, align 8
  %4 = alloca i16, align 2
  %5 = alloca i16, align 2
  %6 = alloca i32, align 4
  %7 = alloca i8, align 1
  store ptr %0, ptr %3, align 8, !tbaa !3
  store i16 %1, ptr %4, align 2, !tbaa !14
  call void @llvm.lifetime.start.p0(i64 2, ptr %5) #5
  call void @llvm.lifetime.start.p0(i64 4, ptr %6) #5
  store i32 0, ptr %6, align 4, !tbaa !12
  call void @llvm.lifetime.start.p0(i64 1, ptr %7) #5
  br label %8

8:                                                ; preds = %28, %2
  %9 = load ptr, ptr %3, align 8, !tbaa !3
  %10 = call signext i8 @ufile_getch_77(ptr noundef %9, ptr noundef %5)
  store i8 %10, ptr %7, align 1, !tbaa !28
  %11 = sext i8 %10 to i32
  %12 = icmp eq i32 %11, 1
  br i1 %12, label %13, label %26

13:                                               ; preds = %8
  %14 = load i16, ptr %5, align 2, !tbaa !14
  %15 = zext i16 %14 to i32
  %16 = load i16, ptr %4, align 2, !tbaa !14
  %17 = zext i16 %16 to i32
  %18 = icmp eq i32 %15, %17
  br i1 %18, label %24, label %19

19:                                               ; preds = %13
  %20 = load i16, ptr %5, align 2, !tbaa !14
  %21 = zext i16 %20 to i32
  %22 = call signext i8 @u_isWhitespace_77(i32 noundef %21)
  %23 = icmp ne i8 %22, 0
  br label %24

24:                                               ; preds = %19, %13
  %25 = phi i1 [ true, %13 ], [ %23, %19 ]
  br label %26

26:                                               ; preds = %24, %8
  %27 = phi i1 [ false, %8 ], [ %25, %24 ]
  br i1 %27, label %28, label %31

28:                                               ; preds = %26
  %29 = load i32, ptr %6, align 4, !tbaa !12
  %30 = add nsw i32 %29, 1
  store i32 %30, ptr %6, align 4, !tbaa !12
  br label %8, !llvm.loop !82

31:                                               ; preds = %26
  %32 = load i8, ptr %7, align 1, !tbaa !28
  %33 = icmp ne i8 %32, 0
  br i1 %33, label %34, label %39

34:                                               ; preds = %31
  %35 = load i16, ptr %5, align 2, !tbaa !14
  %36 = zext i16 %35 to i32
  %37 = load ptr, ptr %3, align 8, !tbaa !3
  %38 = call i32 @u_fungetc_77(i32 noundef %36, ptr noundef %37)
  br label %39

39:                                               ; preds = %34, %31
  %40 = load i32, ptr %6, align 4, !tbaa !12
  call void @llvm.lifetime.end.p0(i64 1, ptr %7) #5
  call void @llvm.lifetime.end.p0(i64 4, ptr %6) #5
  call void @llvm.lifetime.end.p0(i64 2, ptr %5) #5
  ret i32 %40
}

; Function Attrs: mustprogress uwtable
define internal noundef i32 @_ZL19u_scanf_hex_handlerP5UFILEP17u_scanf_spec_infoP9ufmt_argsPKDsPiS7_(ptr noundef %0, ptr noundef %1, ptr noundef %2, ptr noundef %3, ptr noundef %4, ptr noundef %5) #0 {
  %7 = alloca ptr, align 8
  %8 = alloca ptr, align 8
  %9 = alloca ptr, align 8
  %10 = alloca ptr, align 8
  %11 = alloca ptr, align 8
  %12 = alloca ptr, align 8
  %13 = alloca i32, align 4
  %14 = alloca i32, align 4
  %15 = alloca ptr, align 8
  %16 = alloca i64, align 8
  store ptr %0, ptr %7, align 8, !tbaa !3
  store ptr %1, ptr %8, align 8, !tbaa !35
  store ptr %2, ptr %9, align 8, !tbaa !50
  store ptr %3, ptr %10, align 8, !tbaa !8
  store ptr %4, ptr %11, align 8, !tbaa !52
  store ptr %5, ptr %12, align 8, !tbaa !52
  call void @llvm.lifetime.start.p0(i64 4, ptr %13) #5
  call void @llvm.lifetime.start.p0(i64 4, ptr %14) #5
  call void @llvm.lifetime.start.p0(i64 8, ptr %15) #5
  %17 = load ptr, ptr %9, align 8, !tbaa !50
  %18 = getelementptr inbounds %union.ufmt_args, ptr %17, i64 0
  %19 = load ptr, ptr %18, align 8, !tbaa !28
  store ptr %19, ptr %15, align 8, !tbaa !30
  call void @llvm.lifetime.start.p0(i64 8, ptr %16) #5
  %20 = load ptr, ptr %7, align 8, !tbaa !3
  %21 = load ptr, ptr %8, align 8, !tbaa !35
  %22 = getelementptr inbounds nuw %struct.u_scanf_spec_info, ptr %21, i32 0, i32 2
  %23 = load i16, ptr %22, align 2, !tbaa !40
  %24 = call noundef i32 @_ZL23u_scanf_skip_leading_wsP5UFILEDs(ptr noundef %20, i16 noundef zeroext %23)
  store i32 %24, ptr %14, align 4, !tbaa !12
  %25 = load ptr, ptr %7, align 8, !tbaa !3
  call void @_Z26ufile_fill_uchar_buffer_77P5UFILE(ptr noundef %25)
  %26 = load ptr, ptr %7, align 8, !tbaa !3
  %27 = getelementptr inbounds nuw %struct.UFILE, ptr %26, i32 0, i32 3
  %28 = getelementptr inbounds nuw %struct.u_localized_string, ptr %27, i32 0, i32 1
  %29 = load ptr, ptr %28, align 8, !tbaa !56
  %30 = load ptr, ptr %7, align 8, !tbaa !3
  %31 = getelementptr inbounds nuw %struct.UFILE, ptr %30, i32 0, i32 3
  %32 = getelementptr inbounds nuw %struct.u_localized_string, ptr %31, i32 0, i32 0
  %33 = load ptr, ptr %32, align 8, !tbaa !63
  %34 = ptrtoint ptr %29 to i64
  %35 = ptrtoint ptr %33 to i64
  %36 = sub i64 %34, %35
  %37 = sdiv exact i64 %36, 2
  %38 = trunc i64 %37 to i32
  store i32 %38, ptr %13, align 4, !tbaa !12
  %39 = load ptr, ptr %8, align 8, !tbaa !35
  %40 = getelementptr inbounds nuw %struct.u_scanf_spec_info, ptr %39, i32 0, i32 0
  %41 = load i32, ptr %40, align 4, !tbaa !38
  %42 = icmp ne i32 %41, -1
  br i1 %42, label %43, label %57

43:                                               ; preds = %6
  %44 = load i32, ptr %13, align 4, !tbaa !12
  %45 = load ptr, ptr %8, align 8, !tbaa !35
  %46 = getelementptr inbounds nuw %struct.u_scanf_spec_info, ptr %45, i32 0, i32 0
  %47 = load i32, ptr %46, align 4, !tbaa !38
  %48 = icmp slt i32 %44, %47
  br i1 %48, label %49, label %51

49:                                               ; preds = %43
  %50 = load i32, ptr %13, align 4, !tbaa !12
  br label %55

51:                                               ; preds = %43
  %52 = load ptr, ptr %8, align 8, !tbaa !35
  %53 = getelementptr inbounds nuw %struct.u_scanf_spec_info, ptr %52, i32 0, i32 0
  %54 = load i32, ptr %53, align 4, !tbaa !38
  br label %55

55:                                               ; preds = %51, %49
  %56 = phi i32 [ %50, %49 ], [ %54, %51 ]
  store i32 %56, ptr %13, align 4, !tbaa !12
  br label %57

57:                                               ; preds = %55, %6
  %58 = load ptr, ptr %7, align 8, !tbaa !3
  %59 = getelementptr inbounds nuw %struct.UFILE, ptr %58, i32 0, i32 3
  %60 = getelementptr inbounds nuw %struct.u_localized_string, ptr %59, i32 0, i32 0
  %61 = load ptr, ptr %60, align 8, !tbaa !63
  %62 = load i16, ptr %61, align 2, !tbaa !14
  %63 = zext i16 %62 to i32
  %64 = icmp eq i32 %63, 48
  br i1 %64, label %65, label %91

65:                                               ; preds = %57
  %66 = load ptr, ptr %7, align 8, !tbaa !3
  %67 = getelementptr inbounds nuw %struct.UFILE, ptr %66, i32 0, i32 3
  %68 = getelementptr inbounds nuw %struct.u_localized_string, ptr %67, i32 0, i32 0
  %69 = load ptr, ptr %68, align 8, !tbaa !63
  %70 = getelementptr inbounds i16, ptr %69, i64 1
  %71 = load i16, ptr %70, align 2, !tbaa !14
  %72 = zext i16 %71 to i32
  %73 = icmp eq i32 %72, 120
  br i1 %73, label %83, label %74

74:                                               ; preds = %65
  %75 = load ptr, ptr %7, align 8, !tbaa !3
  %76 = getelementptr inbounds nuw %struct.UFILE, ptr %75, i32 0, i32 3
  %77 = getelementptr inbounds nuw %struct.u_localized_string, ptr %76, i32 0, i32 0
  %78 = load ptr, ptr %77, align 8, !tbaa !63
  %79 = getelementptr inbounds i16, ptr %78, i64 1
  %80 = load i16, ptr %79, align 2, !tbaa !14
  %81 = zext i16 %80 to i32
  %82 = icmp eq i32 %81, 88
  br i1 %82, label %83, label %91

83:                                               ; preds = %74, %65
  %84 = load ptr, ptr %7, align 8, !tbaa !3
  %85 = getelementptr inbounds nuw %struct.UFILE, ptr %84, i32 0, i32 3
  %86 = getelementptr inbounds nuw %struct.u_localized_string, ptr %85, i32 0, i32 0
  %87 = load ptr, ptr %86, align 8, !tbaa !63
  %88 = getelementptr inbounds i16, ptr %87, i64 2
  store ptr %88, ptr %86, align 8, !tbaa !63
  %89 = load i32, ptr %13, align 4, !tbaa !12
  %90 = sub nsw i32 %89, 2
  store i32 %90, ptr %13, align 4, !tbaa !12
  br label %91

91:                                               ; preds = %83, %74, %57
  %92 = load ptr, ptr %7, align 8, !tbaa !3
  %93 = getelementptr inbounds nuw %struct.UFILE, ptr %92, i32 0, i32 3
  %94 = getelementptr inbounds nuw %struct.u_localized_string, ptr %93, i32 0, i32 0
  %95 = load ptr, ptr %94, align 8, !tbaa !63
  %96 = call noundef i64 @_Z13ufmt_uto64_77PKDsPia(ptr noundef %95, ptr noundef %13, i8 noundef signext 16)
  store i64 %96, ptr %16, align 8, !tbaa !74
  %97 = load i32, ptr %13, align 4, !tbaa !12
  %98 = load ptr, ptr %7, align 8, !tbaa !3
  %99 = getelementptr inbounds nuw %struct.UFILE, ptr %98, i32 0, i32 3
  %100 = getelementptr inbounds nuw %struct.u_localized_string, ptr %99, i32 0, i32 0
  %101 = load ptr, ptr %100, align 8, !tbaa !63
  %102 = sext i32 %97 to i64
  %103 = getelementptr inbounds i16, ptr %101, i64 %102
  store ptr %103, ptr %100, align 8, !tbaa !63
  %104 = load ptr, ptr %8, align 8, !tbaa !35
  %105 = getelementptr inbounds nuw %struct.u_scanf_spec_info, ptr %104, i32 0, i32 3
  %106 = load i8, ptr %105, align 4, !tbaa !41
  %107 = icmp ne i8 %106, 0
  br i1 %107, label %133, label %108

108:                                              ; preds = %91
  %109 = load ptr, ptr %8, align 8, !tbaa !35
  %110 = getelementptr inbounds nuw %struct.u_scanf_spec_info, ptr %109, i32 0, i32 5
  %111 = load i8, ptr %110, align 2, !tbaa !43
  %112 = icmp ne i8 %111, 0
  br i1 %112, label %113, label %118

113:                                              ; preds = %108
  %114 = load i64, ptr %16, align 8, !tbaa !74
  %115 = and i64 65535, %114
  %116 = trunc i64 %115 to i16
  %117 = load ptr, ptr %15, align 8, !tbaa !30
  store i16 %116, ptr %117, align 2, !tbaa !21
  br label %132

118:                                              ; preds = %108
  %119 = load ptr, ptr %8, align 8, !tbaa !35
  %120 = getelementptr inbounds nuw %struct.u_scanf_spec_info, ptr %119, i32 0, i32 7
  %121 = load i8, ptr %120, align 4, !tbaa !45
  %122 = icmp ne i8 %121, 0
  br i1 %122, label %123, label %126

123:                                              ; preds = %118
  %124 = load i64, ptr %16, align 8, !tbaa !74
  %125 = load ptr, ptr %15, align 8, !tbaa !30
  store i64 %124, ptr %125, align 8, !tbaa !74
  br label %131

126:                                              ; preds = %118
  %127 = load i64, ptr %16, align 8, !tbaa !74
  %128 = and i64 4294967295, %127
  %129 = trunc i64 %128 to i32
  %130 = load ptr, ptr %15, align 8, !tbaa !30
  store i32 %129, ptr %130, align 4, !tbaa !12
  br label %131

131:                                              ; preds = %126, %123
  br label %132

132:                                              ; preds = %131, %113
  br label %133

133:                                              ; preds = %132, %91
  %134 = load ptr, ptr %8, align 8, !tbaa !35
  %135 = getelementptr inbounds nuw %struct.u_scanf_spec_info, ptr %134, i32 0, i32 3
  %136 = load i8, ptr %135, align 4, !tbaa !41
  %137 = icmp ne i8 %136, 0
  %138 = xor i1 %137, true
  %139 = zext i1 %138 to i32
  %140 = load ptr, ptr %12, align 8, !tbaa !52
  store i32 %139, ptr %140, align 4, !tbaa !12
  %141 = load i32, ptr %13, align 4, !tbaa !12
  %142 = load i32, ptr %14, align 4, !tbaa !12
  %143 = add nsw i32 %141, %142
  call void @llvm.lifetime.end.p0(i64 8, ptr %16) #5
  call void @llvm.lifetime.end.p0(i64 8, ptr %15) #5
  call void @llvm.lifetime.end.p0(i64 4, ptr %14) #5
  call void @llvm.lifetime.end.p0(i64 4, ptr %13) #5
  ret i32 %143
}