; Function Attrs: mustprogress uwtable
define internal noundef i32 @_ZL19u_scanf_hex_handlerP5UFILEP17u_scanf_spec_infoP9ufmt_argsPKDsPiS7_(ptr noundef %0, ptr noundef readonly captures(none) %1, ptr noundef readonly captures(none) %2, ptr readnone captures(none) %3, ptr readnone captures(none) %4, ptr noundef writeonly captures(none) %5) #0 {
  %7 = alloca i16, align 2
  %8 = alloca i32, align 4
  call void @llvm.lifetime.start.p0(i64 4, ptr nonnull %8) #6
  %9 = load ptr, ptr %2, align 8, !tbaa !33
  %10 = getelementptr inbounds nuw i8, ptr %1, i64 6
  %11 = load i16, ptr %10, align 2, !tbaa !16
  call void @llvm.lifetime.start.p0(i64 2, ptr nonnull %7) #6
  br label %12

12:                                               ; preds = %.critedge2.i, %6
  %.0.i = phi i32 [ 0, %6 ], [ %20, %.critedge2.i ]
  %13 = call signext i8 @ufile_getch_77(ptr noundef %0, ptr noundef nonnull %7)
  switch i8 %13, label %.critedge.i [
    i8 1, label %14
    i8 0, label %_ZL23u_scanf_skip_leading_wsP5UFILEDs.exit
  ]

14:                                               ; preds = %12
  %15 = load i16, ptr %7, align 2, !tbaa !7
  %16 = icmp eq i16 %15, %11
  br i1 %16, label %.critedge2.i, label %17

17:                                               ; preds = %14
  %18 = zext i16 %15 to i32
  %19 = call signext i8 @u_isWhitespace_77(i32 noundef %18)
  %.not.i = icmp eq i8 %19, 0
  br i1 %.not.i, label %.critedge.i, label %.critedge2.i

.critedge2.i:                                     ; preds = %17, %14
  %20 = add nuw nsw i32 %.0.i, 1
  br label %12, !llvm.loop !38

.critedge.i:                                      ; preds = %17, %12
  %21 = load i16, ptr %7, align 2, !tbaa !7
  %22 = zext i16 %21 to i32
  %23 = call i32 @u_fungetc_77(i32 noundef %22, ptr noundef %0)
  br label %_ZL23u_scanf_skip_leading_wsP5UFILEDs.exit

_ZL23u_scanf_skip_leading_wsP5UFILEDs.exit:       ; preds = %12, %.critedge.i
  call void @llvm.lifetime.end.p0(i64 2, ptr nonnull %7) #6
  call void @_Z26ufile_fill_uchar_buffer_77P5UFILE(ptr noundef %0)
  %24 = getelementptr inbounds nuw i8, ptr %0, i64 24
  %25 = getelementptr inbounds nuw i8, ptr %0, i64 32
  %26 = load ptr, ptr %25, align 8, !tbaa !39
  %27 = load ptr, ptr %24, align 8, !tbaa !47
  %28 = ptrtoint ptr %26 to i64
  %29 = ptrtoint ptr %27 to i64
  %30 = sub i64 %28, %29
  %31 = lshr exact i64 %30, 1
  %32 = trunc i64 %31 to i32
  store i32 %32, ptr %8, align 4, !tbaa !3
  %33 = load i32, ptr %1, align 4, !tbaa !14
  %.not = icmp eq i32 %33, -1
  br i1 %.not, label %35, label %34

34:                                               ; preds = %_ZL23u_scanf_skip_leading_wsP5UFILEDs.exit
  %. = call i32 @llvm.smin.i32(i32 %33, i32 %32)
  store i32 %., ptr %8, align 4, !tbaa !3
  br label %35

35:                                               ; preds = %34, %_ZL23u_scanf_skip_leading_wsP5UFILEDs.exit
  %36 = phi i32 [ %., %34 ], [ %32, %_ZL23u_scanf_skip_leading_wsP5UFILEDs.exit ]
  %37 = load i16, ptr %27, align 2, !tbaa !7
  %38 = icmp eq i16 %37, 48
  br i1 %38, label %39, label %45

39:                                               ; preds = %35
  %40 = getelementptr inbounds nuw i8, ptr %27, i64 2
  %41 = load i16, ptr %40, align 2, !tbaa !7
  switch i16 %41, label %45 [
    i16 120, label %42
    i16 88, label %42
  ]

42:                                               ; preds = %39, %39
  %43 = getelementptr inbounds nuw i8, ptr %27, i64 4
  store ptr %43, ptr %24, align 8, !tbaa !47
  %44 = add nsw i32 %36, -2
  store i32 %44, ptr %8, align 4, !tbaa !3
  br label %45

45:                                               ; preds = %39, %42, %35
  %46 = phi ptr [ %27, %39 ], [ %43, %42 ], [ %27, %35 ]
  %47 = call noundef i64 @_Z13ufmt_uto64_77PKDsPia(ptr noundef nonnull %46, ptr noundef nonnull %8, i8 noundef signext 16)
  %48 = load i32, ptr %8, align 4, !tbaa !3
  %49 = load ptr, ptr %24, align 8, !tbaa !47
  %50 = sext i32 %48 to i64
  %51 = getelementptr inbounds i16, ptr %49, i64 %50
  store ptr %51, ptr %24, align 8, !tbaa !47
  %52 = getelementptr inbounds nuw i8, ptr %1, i64 8
  %53 = load i8, ptr %52, align 4, !tbaa !19
  %.not28 = icmp eq i8 %53, 0
  br i1 %.not28, label %54, label %65

54:                                               ; preds = %45
  %55 = getelementptr inbounds nuw i8, ptr %1, i64 10
  %56 = load i8, ptr %55, align 2, !tbaa !22
  %.not29 = icmp eq i8 %56, 0
  br i1 %.not29, label %59, label %57

57:                                               ; preds = %54
  %58 = trunc i64 %47 to i16
  store i16 %58, ptr %9, align 2, !tbaa !56
  br label %65

59:                                               ; preds = %54
  %60 = getelementptr inbounds nuw i8, ptr %1, i64 12
  %61 = load i8, ptr %60, align 4, !tbaa !23
  %.not30 = icmp eq i8 %61, 0
  br i1 %.not30, label %63, label %62

62:                                               ; preds = %59
  store i64 %47, ptr %9, align 8, !tbaa !58
  br label %65

63:                                               ; preds = %59
  %64 = trunc i64 %47 to i32
  store i32 %64, ptr %9, align 4, !tbaa !3
  br label %65

65:                                               ; preds = %57, %63, %62, %45
  %66 = zext i1 %.not28 to i32
  store i32 %66, ptr %5, align 4, !tbaa !3
  %67 = add nsw i32 %48, %.0.i
  call void @llvm.lifetime.end.p0(i64 4, ptr nonnull %8) #6
  ret i32 %67
}